target datalayout = "e-m:e-p270:32:32-p271:32:32-p272:64:64-i64:64-i128:128-f80:128-n8:16:32:64-S128"
target triple = "x86_64-pc-linux-gnu"

%struct.Fra_Man_t_ = type { ptr, ptr, ptr, i32, ptr, i32, ptr, ptr, ptr, i32, ptr, ptr, ptr, ptr, i32, ptr, i64, i64, ptr, ptr, i32, ptr, i32, i32, i32, i32, i32, i32, i32, i32, i32, i32, i32, i32, i32, i32, i32, i32, i32, i32, i32, i64, i64, i64, i64, i64, i64, i64, i64, i64, i64, i64 }
%struct.Vec_Ptr_t_ = type { i32, i32, ptr }

; Function Attrs: inlinehint nounwind uwtable
define internal void @Vec_PtrFree(ptr noundef %0) #4 {
  %2 = alloca ptr, align 8
  store ptr %0, ptr %2, align 8, !tbaa !62
  %3 = load ptr, ptr %2, align 8, !tbaa !62
  %4 = getelementptr inbounds nuw %struct.Vec_Ptr_t_, ptr %3, i32 0, i32 2
  %5 = load ptr, ptr %4, align 8, !tbaa !66
  %6 = icmp ne ptr %5, null
  br i1 %6, label %7, label %13

7:                                                ; preds = %1
  %8 = load ptr, ptr %2, align 8, !tbaa !62
  %9 = getelementptr inbounds nuw %struct.Vec_Ptr_t_, ptr %8, i32 0, i32 2
  %10 = load ptr, ptr %9, align 8, !tbaa !66
  call void @free(ptr noundef %10) #10
  %11 = load ptr, ptr %2, align 8, !tbaa !62
  %12 = getelementptr inbounds nuw %struct.Vec_Ptr_t_, ptr %11, i32 0, i32 2
  store ptr null, ptr %12, align 8, !tbaa !66
  br label %14

13:                                               ; preds = %1
  br label %14

14:                                               ; preds = %13, %7
  %15 = load ptr, ptr %2, align 8, !tbaa !62
  %16 = icmp ne ptr %15, null
  br i1 %16, label %17, label %19

17:                                               ; preds = %14
  %18 = load ptr, ptr %2, align 8, !tbaa !62
  call void @free(ptr noundef %18) #10
  store ptr null, ptr %2, align 8, !tbaa !62
  br label %20

19:                                               ; preds = %14
  br label %20

20:                                               ; preds = %19, %17
  ret void
}

; Function Attrs: nounwind uwtable
define void @Fra_ManClean(ptr noundef %0, i32 noundef %1) #0 {
  %3 = alloca ptr, align 8
  %4 = alloca i32, align 4
  %5 = alloca i32, align 4
  %6 = alloca i32, align 4
  store ptr %0, ptr %3, align 8, !tbaa !26
  store i32 %1, ptr %4, align 4, !tbaa !48
  call void @llvm.lifetime.start.p0(i64 4, ptr %5) #10
  store i32 0, ptr %5, align 4, !tbaa !48
  br label %7

7:                                                ; preds = %40, %2
  %8 = load i32, ptr %5, align 4, !tbaa !48
  %9 = load ptr, ptr %3, align 8, !tbaa !26
  %10 = getelementptr inbounds nuw %struct.Fra_Man_t_, ptr %9, i32 0, i32 20
  %11 = load i32, ptr %10, align 8, !tbaa !68
  %12 = icmp slt i32 %8, %11
  br i1 %12, label %13, label %43

13:                                               ; preds = %7
  %14 = load ptr, ptr %3, align 8, !tbaa !26
  %15 = getelementptr inbounds nuw %struct.Fra_Man_t_, ptr %14, i32 0, i32 18
  %16 = load ptr, ptr %15, align 8, !tbaa !69
  %17 = load i32, ptr %5, align 4, !tbaa !48
  %18 = sext i32 %17 to i64
  %19 = getelementptr inbounds ptr, ptr %16, i64 %18
  %20 = load ptr, ptr %19, align 8, !tbaa !62
  %21 = icmp ne ptr %20, null
  br i1 %21, label %22, label %39

22:                                               ; preds = %13
  %23 = load ptr, ptr %3, align 8, !tbaa !26
  %24 = getelementptr inbounds nuw %struct.Fra_Man_t_, ptr %23, i32 0, i32 18
  %25 = load ptr, ptr %24, align 8, !tbaa !69
  %26 = load i32, ptr %5, align 4, !tbaa !48
  %27 = sext i32 %26 to i64
  %28 = getelementptr inbounds ptr, ptr %25, i64 %27
  %29 = load ptr, ptr %28, align 8, !tbaa !62
  %30 = icmp ne ptr %29, inttoptr (i64 1 to ptr)
  br i1 %30, label %31, label %39

31:                                               ; preds = %22
  %32 = load ptr, ptr %3, align 8, !tbaa !26
  %33 = getelementptr inbounds nuw %struct.Fra_Man_t_, ptr %32, i32 0, i32 18
  %34 = load ptr, ptr %33, align 8, !tbaa !69
  %35 = load i32, ptr %5, align 4, !tbaa !48
  %36 = sext i32 %35 to i64
  %37 = getelementptr inbounds ptr, ptr %34, i64 %36
  %38 = load ptr, ptr %37, align 8, !tbaa !62
  call void @Vec_PtrFree(ptr noundef %38)
  br label %39

39:                                               ; preds = %31, %22, %13
  br label %40

40:                                               ; preds = %39
  %41 = load i32, ptr %5, align 4, !tbaa !48
  %42 = add nsw i32 %41, 1
  store i32 %42, ptr %5, align 4, !tbaa !48
  br label %7, !llvm.loop !70

43:                                               ; preds = %7
  %44 = load ptr, ptr %3, align 8, !tbaa !26
  %45 = getelementptr inbounds nuw %struct.Fra_Man_t_, ptr %44, i32 0, i32 20
  %46 = load i32, ptr %45, align 8, !tbaa !68
  %47 = load i32, ptr %4, align 4, !tbaa !48
  %48 = icmp slt i32 %46, %47
  br i1 %48, label %49, label %97

49:                                               ; preds = %43
  call void @llvm.lifetime.start.p0(i64 4, ptr %6) #10
  %50 = load i32, ptr %4, align 4, !tbaa !48
  %51 = add nsw i32 %50, 5000
  store i32 %51, ptr %6, align 4, !tbaa !48
  %52 = load ptr, ptr %3, align 8, !tbaa !26
  %53 = getelementptr inbounds nuw %struct.Fra_Man_t_, ptr %52, i32 0, i32 18
  %54 = load ptr, ptr %53, align 8, !tbaa !69
  %55 = icmp ne ptr %54, null
  br i1 %55, label %56, label %64

56:                                               ; preds = %49
  %57 = load ptr, ptr %3, align 8, !tbaa !26
  %58 = getelementptr inbounds nuw %struct.Fra_Man_t_, ptr %57, i32 0, i32 18
  %59 = load ptr, ptr %58, align 8, !tbaa !69
  %60 = load i32, ptr %6, align 4, !tbaa !48
  %61 = sext i32 %60 to i64
  %62 = mul i64 8, %61
  %63 = call ptr @realloc(ptr noundef %59, i64 noundef %62) #12
  br label %69

64:                                               ; preds = %49
  %65 = load i32, ptr %6, align 4, !tbaa !48
  %66 = sext i32 %65 to i64
  %67 = mul i64 8, %66
  %68 = call noalias ptr @malloc(i64 noundef %67) #11
  br label %69

69:                                               ; preds = %64, %56
  %70 = phi ptr [ %63, %56 ], [ %68, %64 ]
  %71 = load ptr, ptr %3, align 8, !tbaa !26
  %72 = getelementptr inbounds nuw %struct.Fra_Man_t_, ptr %71, i32 0, i32 18
  store ptr %70, ptr %72, align 8, !tbaa !69
  %73 = load ptr, ptr %3, align 8, !tbaa !26
  %74 = getelementptr inbounds nuw %struct.Fra_Man_t_, ptr %73, i32 0, i32 19
  %75 = load ptr, ptr %74, align 8, !tbaa !71
  %76 = icmp ne ptr %75, null
  br i1 %76, label %77, label %85

77:                                               ; preds = %69
  %78 = load ptr, ptr %3, align 8, !tbaa !26
  %79 = getelementptr inbounds nuw %struct.Fra_Man_t_, ptr %78, i32 0, i32 19
  %80 = load ptr, ptr %79, align 8, !tbaa !71
  %81 = load i32, ptr %6, align 4, !tbaa !48
  %82 = sext i32 %81 to i64
  %83 = mul i64 4, %82
  %84 = call ptr @realloc(ptr noundef %80, i64 noundef %83) #12
  br label %90

85:                                               ; preds = %69
  %86 = load i32, ptr %6, align 4, !tbaa !48
  %87 = sext i32 %86 to i64
  %88 = mul i64 4, %87
  %89 = call noalias ptr @malloc(i64 noundef %88) #11
  br label %90

90:                                               ; preds = %85, %77
  %91 = phi ptr [ %84, %77 ], [ %89, %85 ]
  %92 = load ptr, ptr %3, align 8, !tbaa !26
  %93 = getelementptr inbounds nuw %struct.Fra_Man_t_, ptr %92, i32 0, i32 19
  store ptr %91, ptr %93, align 8, !tbaa !71
  %94 = load i32, ptr %6, align 4, !tbaa !48
  %95 = load ptr, ptr %3, align 8, !tbaa !26
  %96 = getelementptr inbounds nuw %struct.Fra_Man_t_, ptr %95, i32 0, i32 20
  store i32 %94, ptr %96, align 8, !tbaa !68
  call void @llvm.lifetime.end.p0(i64 4, ptr %6) #10
  br label %97

97:                                               ; preds = %90, %43
  %98 = load ptr, ptr %3, align 8, !tbaa !26
  %99 = getelementptr inbounds nuw %struct.Fra_Man_t_, ptr %98, i32 0, i32 18
  %100 = load ptr, ptr %99, align 8, !tbaa !69
  %101 = load ptr, ptr %3, align 8, !tbaa !26
  %102 = getelementptr inbounds nuw %struct.Fra_Man_t_, ptr %101, i32 0, i32 20
  %103 = load i32, ptr %102, align 8, !tbaa !68
  %104 = sext i32 %103 to i64
  %105 = mul i64 8, %104
  call void @llvm.memset.p0.i64(ptr align 8 %100, i8 0, i64 %105, i1 false)
  %106 = load ptr, ptr %3, align 8, !tbaa !26
  %107 = getelementptr inbounds nuw %struct.Fra_Man_t_, ptr %106, i32 0, i32 19
  %108 = load ptr, ptr %107, align 8, !tbaa !71
  %109 = load ptr, ptr %3, align 8, !tbaa !26
  %110 = getelementptr inbounds nuw %struct.Fra_Man_t_, ptr %109, i32 0, i32 20
  %111 = load i32, ptr %110, align 8, !tbaa !68
  %112 = sext i32 %111 to i64
  %113 = mul i64 4, %112
  call void @llvm.memset.p0.i64(ptr align 4 %108, i8 0, i64 %113, i1 false)
  call void @llvm.lifetime.end.p0(i64 4, ptr %5) #10
  ret void
}