; Function Attrs: nounwind uwtable
define void @Fra_ManClean(ptr noundef captures(none) %0, i32 noundef %1) local_unnamed_addr #2 {
  %3 = getelementptr inbounds nuw i8, ptr %0, i64 160
  %4 = load i32, ptr %3, align 8, !tbaa !60
  %5 = icmp sgt i32 %4, 0
  br i1 %5, label %.lr.ph, label %._crit_edge

.lr.ph:                                           ; preds = %2
  %6 = getelementptr inbounds nuw i8, ptr %0, i64 144
  br label %7

7:                                                ; preds = %.lr.ph, %16
  %8 = phi i32 [ %4, %.lr.ph ], [ %17, %16 ]
  %indvars.iv = phi i64 [ 0, %.lr.ph ], [ %indvars.iv.next, %16 ]
  %9 = load ptr, ptr %6, align 8, !tbaa !61
  %10 = getelementptr inbounds nuw ptr, ptr %9, i64 %indvars.iv
  %11 = load ptr, ptr %10, align 8, !tbaa !62
  %switch = icmp ult ptr %11, inttoptr (i64 2 to ptr)
  br i1 %switch, label %16, label %12

12:                                               ; preds = %7
  %13 = getelementptr inbounds nuw i8, ptr %11, i64 8
  %14 = load ptr, ptr %13, align 8, !tbaa !52
  %.not.i = icmp eq ptr %14, null
  br i1 %.not.i, label %Vec_PtrFree.exit, label %15

15:                                               ; preds = %12
  tail call void @free(ptr noundef nonnull %14) #15
  br label %Vec_PtrFree.exit

Vec_PtrFree.exit:                                 ; preds = %12, %15
  tail call void @free(ptr noundef nonnull %11) #15
  %.pre = load i32, ptr %3, align 8, !tbaa !60
  br label %16

16:                                               ; preds = %7, %Vec_PtrFree.exit
  %17 = phi i32 [ %8, %7 ], [ %.pre, %Vec_PtrFree.exit ]
  %indvars.iv.next = add nuw nsw i64 %indvars.iv, 1
  %18 = sext i32 %17 to i64
  %19 = icmp slt i64 %indvars.iv.next, %18
  br i1 %19, label %7, label %._crit_edge, !llvm.loop !63

._crit_edge:                                      ; preds = %16, %2
  %.lcssa = phi i32 [ %4, %2 ], [ %17, %16 ]
  %20 = icmp slt i32 %.lcssa, %1
  br i1 %20, label %21, label %43

21:                                               ; preds = %._crit_edge
  %22 = add nsw i32 %1, 5000
  %23 = getelementptr inbounds nuw i8, ptr %0, i64 144
  %24 = load ptr, ptr %23, align 8, !tbaa !61
  %.not = icmp eq ptr %24, null
  %25 = sext i32 %22 to i64
  %26 = shl nsw i64 %25, 3
  br i1 %.not, label %29, label %27

27:                                               ; preds = %21
  %28 = tail call ptr @realloc(ptr noundef nonnull %24, i64 noundef %26) #16
  br label %31

29:                                               ; preds = %21
  %30 = tail call noalias ptr @malloc(i64 noundef %26) #14
  br label %31

31:                                               ; preds = %29, %27
  %32 = phi ptr [ %28, %27 ], [ %30, %29 ]
  store ptr %32, ptr %23, align 8, !tbaa !61
  %33 = getelementptr inbounds nuw i8, ptr %0, i64 152
  %34 = load ptr, ptr %33, align 8, !tbaa !64
  %.not32 = icmp eq ptr %34, null
  %35 = sext i32 %22 to i64
  %36 = shl nsw i64 %35, 2
  br i1 %.not32, label %39, label %37

37:                                               ; preds = %31
  %38 = tail call ptr @realloc(ptr noundef nonnull %34, i64 noundef %36) #16
  br label %41

39:                                               ; preds = %31
  %40 = tail call noalias ptr @malloc(i64 noundef %36) #14
  br label %41

41:                                               ; preds = %39, %37
  %42 = phi ptr [ %38, %37 ], [ %40, %39 ]
  store ptr %42, ptr %33, align 8, !tbaa !64
  store i32 %22, ptr %3, align 8, !tbaa !60
  br label %43

43:                                               ; preds = %41, %._crit_edge
  %44 = phi i32 [ %22, %41 ], [ %.lcssa, %._crit_edge ]
  %45 = getelementptr inbounds nuw i8, ptr %0, i64 144
  %46 = load ptr, ptr %45, align 8, !tbaa !61
  %47 = sext i32 %44 to i64
  %48 = shl nsw i64 %47, 3
  tail call void @llvm.memset.p0.i64(ptr align 8 %46, i8 0, i64 %48, i1 false)
  %49 = getelementptr inbounds nuw i8, ptr %0, i64 152
  %50 = load ptr, ptr %49, align 8, !tbaa !64
  %51 = load i32, ptr %3, align 8, !tbaa !60
  %52 = sext i32 %51 to i64
  %53 = shl nsw i64 %52, 2
  tail call void @llvm.memset.p0.i64(ptr align 4 %50, i8 0, i64 %53, i1 false)
  ret void
}